target datalayout = "e-m:e-p270:32:32-p271:32:32-p272:64:64-i64:64-i128:128-f80:128-n8:16:32:64-S128"
target triple = "x86_64-pc-linux-gnu"

%struct._php_core_globals = type { i64, i8, i8, i8, i8, i8, i8, i8, i8, ptr, ptr, i64, i64, i64, ptr, ptr, ptr, ptr, ptr, i8, ptr, ptr, ptr, ptr, i64, ptr, ptr, ptr, ptr, ptr, ptr, ptr, %struct._arg_separators, ptr, %struct._zend_array, i16, i8, i8, %struct._zend_llist, [6 x %struct._zval_struct], i8, i8, i8, i8, i8, ptr, ptr, i64, [8 x i8], i8, i8, i8, i8, i8, i8, i32, i32, ptr, ptr, ptr, ptr, i64, i64, ptr, i64, ptr, ptr, i8, i8, i8, i8, i8, i8, i64, ptr, i64, i64 }
%struct._arg_separators = type { ptr, ptr }
%struct._zend_array = type { %struct._zend_refcounted_h, %union.anon.0, i32, %union.anon.1, i32, i32, i32, i32, i64, ptr }
%struct._zend_refcounted_h = type { i32, %union.anon }
%union.anon = type { i32 }
%union.anon.0 = type { i32 }
%union.anon.1 = type { ptr }
%struct._zend_llist = type { ptr, ptr, i64, i64, ptr, i8, ptr }
%struct._zval_struct = type { %union._zend_value, %union.anon.3, %union.anon.6 }
%union._zend_value = type { i64 }
%union.anon.3 = type { i32 }
%union.anon.6 = type { i32 }
%struct.st_tick_function = type { ptr, ptr }

@core_globals = external global %struct._php_core_globals, align 8

; Function Attrs: nounwind uwtable
define hidden i32 @php_startup_ticks() #0 {
  call void @zend_llist_init(ptr noundef getelementptr inbounds (%struct._php_core_globals, ptr @core_globals, i32 0, i32 38), i64 noundef 16, ptr noundef null, i8 noundef zeroext 1)
  ret i32 0
}

declare void @zend_llist_init(ptr noundef, i64 noundef, ptr noundef, i8 noundef zeroext) #1

; Function Attrs: nounwind uwtable
define hidden void @php_deactivate_ticks() #0 {
  call void @zend_llist_clean(ptr noundef getelementptr inbounds (%struct._php_core_globals, ptr @core_globals, i32 0, i32 38))
  ret void
}

declare void @zend_llist_clean(ptr noundef) #1

; Function Attrs: nounwind uwtable
define hidden void @php_shutdown_ticks(ptr noundef %0) #0 {
  %2 = alloca ptr, align 8
  store ptr %0, ptr %2, align 8
  %3 = load ptr, ptr %2, align 8
  %4 = getelementptr inbounds %struct._php_core_globals, ptr %3, i32 0, i32 38
  call void @zend_llist_destroy(ptr noundef %4)
  ret void
}

declare void @zend_llist_destroy(ptr noundef) #1

; Function Attrs: nounwind uwtable
define void @php_add_tick_function(ptr noundef %0, ptr noundef %1) #0 {
  %3 = alloca ptr, align 8
  %4 = alloca ptr, align 8
  %5 = alloca %struct.st_tick_function, align 8
  store ptr %0, ptr %3, align 8
  store ptr %1, ptr %4, align 8
  %6 = getelementptr inbounds %struct.st_tick_function, ptr %5, i32 0, i32 0
  %7 = load ptr, ptr %3, align 8
  store ptr %7, ptr %6, align 8
  %8 = getelementptr inbounds %struct.st_tick_function, ptr %5, i32 0, i32 1
  %9 = load ptr, ptr %4, align 8
  store ptr %9, ptr %8, align 8
  call void @zend_llist_add_element(ptr noundef getelementptr inbounds (%struct._php_core_globals, ptr @core_globals, i32 0, i32 38), ptr noundef %5)
  ret void
}

declare void @zend_llist_add_element(ptr noundef, ptr noundef) #1

; Function Attrs: nounwind uwtable
define void @php_remove_tick_function(ptr noundef %0, ptr noundef %1) #0 {
  %3 = alloca ptr, align 8
  %4 = alloca ptr, align 8
  %5 = alloca %struct.st_tick_function, align 8
  store ptr %0, ptr %3, align 8
  store ptr %1, ptr %4, align 8
  %6 = getelementptr inbounds %struct.st_tick_function, ptr %5, i32 0, i32 0
  %7 = load ptr, ptr %3, align 8
  store ptr %7, ptr %6, align 8
  %8 = getelementptr inbounds %struct.st_tick_function, ptr %5, i32 0, i32 1
  %9 = load ptr, ptr %4, align 8
  store ptr %9, ptr %8, align 8
  call void @zend_llist_del_element(ptr noundef getelementptr inbounds (%struct._php_core_globals, ptr @core_globals, i32 0, i32 38), ptr noundef %5, ptr noundef @php_compare_tick_functions)
  ret void
}

declare void @zend_llist_del_element(ptr noundef, ptr noundef, ptr noundef) #1

; Function Attrs: nounwind uwtable
define internal i32 @php_compare_tick_functions(ptr noundef %0, ptr noundef %1) #0 {
  %3 = alloca ptr, align 8
  %4 = alloca ptr, align 8
  %5 = alloca ptr, align 8
  %6 = alloca ptr, align 8
  store ptr %0, ptr %3, align 8
  store ptr %1, ptr %4, align 8
  %7 = load ptr, ptr %3, align 8
  store ptr %7, ptr %5, align 8
  %8 = load ptr, ptr %4, align 8
  store ptr %8, ptr %6, align 8
  %9 = load ptr, ptr %5, align 8
  %10 = getelementptr inbounds %struct.st_tick_function, ptr %9, i32 0, i32 0
  %11 = load ptr, ptr %10, align 8
  %12 = load ptr, ptr %6, align 8
  %13 = getelementptr inbounds %struct.st_tick_function, ptr %12, i32 0, i32 0
  %14 = load ptr, ptr %13, align 8
  %15 = icmp eq ptr %11, %14
  br i1 %15, label %16, label %24

16:                                               ; preds = %2
  %17 = load ptr, ptr %5, align 8
  %18 = getelementptr inbounds %struct.st_tick_function, ptr %17, i32 0, i32 1
  %19 = load ptr, ptr %18, align 8
  %20 = load ptr, ptr %6, align 8
  %21 = getelementptr inbounds %struct.st_tick_function, ptr %20, i32 0, i32 1
  %22 = load ptr, ptr %21, align 8
  %23 = icmp eq ptr %19, %22
  br label %24

24:                                               ; preds = %16, %2
  %25 = phi i1 [ false, %2 ], [ %23, %16 ]
  %26 = zext i1 %25 to i32
  ret i32 %26
}

; Function Attrs: nounwind uwtable
define hidden void @php_run_ticks(i32 noundef %0) #0 {
  %2 = alloca i32, align 4
  store i32 %0, ptr %2, align 4
  call void @zend_llist_apply_with_argument(ptr noundef getelementptr inbounds (%struct._php_core_globals, ptr @core_globals, i32 0, i32 38), ptr noundef @php_tick_iterator, ptr noundef %2)
  ret void
}

declare void @zend_llist_apply_with_argument(ptr noundef, ptr noundef, ptr noundef) #1

; Function Attrs: nounwind uwtable
define internal void @php_tick_iterator(ptr noundef %0, ptr noundef %1) #0 {
  %3 = alloca ptr, align 8
  %4 = alloca ptr, align 8
  %5 = alloca ptr, align 8
  store ptr %0, ptr %3, align 8
  store ptr %1, ptr %4, align 8
  %6 = load ptr, ptr %3, align 8
  store ptr %6, ptr %5, align 8
  %7 = load ptr, ptr %5, align 8
  %8 = getelementptr inbounds %struct.st_tick_function, ptr %7, i32 0, i32 0
  %9 = load ptr, ptr %8, align 8
  %10 = load ptr, ptr %4, align 8
  %11 = load i32, ptr %10, align 4
  %12 = load ptr, ptr %5, align 8
  %13 = getelementptr inbounds %struct.st_tick_function, ptr %12, i32 0, i32 1
  %14 = load ptr, ptr %13, align 8
  call void %9(i32 noundef %11, ptr noundef %14)
  ret void
}


!llvm.module.flags = !{!0, !1, !2, !3}

!0 = !{i32 1, !"wchar_size", i32 4}
!1 = !{i32 8, !"PIC Level", i32 2}
!2 = !{i32 7, !"uwtable", i32 2}
!3 = !{i32 7, !"frame-pointer", i32 2}
