; ModuleID = 'bench/php/original/php_ticks.ll'
source_filename = "bench/php/original/php_ticks.ll"
target datalayout = "e-m:e-p270:32:32-p271:32:32-p272:64:64-i64:64-i128:128-f80:128-n8:16:32:64-S128"
target triple = "x86_64-pc-linux-gnu"

%struct._php_core_globals = type { i64, i8, i8, i8, i8, i8, i8, i8, i8, ptr, ptr, i64, i64, i64, ptr, ptr, ptr, ptr, ptr, i8, ptr, ptr, ptr, ptr, i64, ptr, ptr, ptr, ptr, ptr, ptr, ptr, %struct._arg_separators, ptr, %struct._zend_array, i16, i8, i8, %struct._zend_llist, [6 x %struct._zval_struct], i8, i8, i8, i8, i8, ptr, ptr, i64, [8 x i8], i8, i8, i8, i8, i8, i8, i32, i32, ptr, ptr, ptr, ptr, i64, i64, ptr, i64, ptr, ptr, i8, i8, i8, i8, i8, i8, i64, ptr, i64, i64 }
%struct._arg_separators = type { ptr, ptr }
%struct._zend_array = type { %struct._zend_refcounted_h, %union.anon.0, i32, %union.anon.1, i32, i32, i32, i32, i64, ptr }
%struct._zend_refcounted_h = type { i32, %union.anon }
%union.anon = type { i32 }
%union.anon.0 = type { i32 }
%union.anon.1 = type { ptr }
%struct._zend_llist = type { ptr, ptr, i64, i64, ptr, i8, ptr }
%struct._zval_struct = type { %union._zend_value, %union.anon.3, %union.anon.6 }
%union._zend_value = type { i64 }
%union.anon.3 = type { i32 }
%union.anon.6 = type { i32 }
%struct.st_tick_function = type { ptr, ptr }

@core_globals = external global %struct._php_core_globals, align 8

; Function Attrs: nounwind uwtable
define hidden noundef i32 @php_startup_ticks() local_unnamed_addr #0 {
  tail call void @zend_llist_init(ptr noundef nonnull getelementptr inbounds (%struct._php_core_globals, ptr @core_globals, i64 0, i32 38), i64 noundef 16, ptr noundef null, i8 noundef zeroext 1) #3
  ret i32 0
}

declare void @zend_llist_init(ptr noundef, i64 noundef, ptr noundef, i8 noundef zeroext) local_unnamed_addr #1

; Function Attrs: nounwind uwtable
define hidden void @php_deactivate_ticks() local_unnamed_addr #0 {
  tail call void @zend_llist_clean(ptr noundef nonnull getelementptr inbounds (%struct._php_core_globals, ptr @core_globals, i64 0, i32 38)) #3
  ret void
}

declare void @zend_llist_clean(ptr noundef) local_unnamed_addr #1

; Function Attrs: nounwind uwtable
define hidden void @php_shutdown_ticks(ptr noundef %0) local_unnamed_addr #0 {
  %2 = getelementptr inbounds i8, ptr %0, i64 288
  tail call void @zend_llist_destroy(ptr noundef nonnull %2) #3
  ret void
}

declare void @zend_llist_destroy(ptr noundef) local_unnamed_addr #1

; Function Attrs: nounwind uwtable
define void @php_add_tick_function(ptr noundef %0, ptr noundef %1) local_unnamed_addr #0 {
  %3 = alloca %struct.st_tick_function, align 8
  store ptr %0, ptr %3, align 8
  %4 = getelementptr inbounds i8, ptr %3, i64 8
  store ptr %1, ptr %4, align 8
  call void @zend_llist_add_element(ptr noundef nonnull getelementptr inbounds (%struct._php_core_globals, ptr @core_globals, i64 0, i32 38), ptr noundef nonnull %3) #3
  ret void
}

declare void @zend_llist_add_element(ptr noundef, ptr noundef) local_unnamed_addr #1

; Function Attrs: nounwind uwtable
define void @php_remove_tick_function(ptr noundef %0, ptr noundef %1) local_unnamed_addr #0 {
  %3 = alloca %struct.st_tick_function, align 8
  store ptr %0, ptr %3, align 8
  %4 = getelementptr inbounds i8, ptr %3, i64 8
  store ptr %1, ptr %4, align 8
  call void @zend_llist_del_element(ptr noundef nonnull getelementptr inbounds (%struct._php_core_globals, ptr @core_globals, i64 0, i32 38), ptr noundef nonnull %3, ptr noundef nonnull @php_compare_tick_functions) #3
  ret void
}

declare void @zend_llist_del_element(ptr noundef, ptr noundef, ptr noundef) local_unnamed_addr #1

; Function Attrs: mustprogress nofree norecurse nosync nounwind willreturn memory(argmem: read) uwtable
define internal i32 @php_compare_tick_functions(ptr nocapture noundef readonly %0, ptr nocapture noundef readonly %1) #2 {
  %3 = load ptr, ptr %0, align 8
  %4 = load ptr, ptr %1, align 8
  %5 = icmp eq ptr %3, %4
  br i1 %5, label %6, label %13

6:                                                ; preds = %2
  %7 = getelementptr inbounds i8, ptr %0, i64 8
  %8 = load ptr, ptr %7, align 8
  %9 = getelementptr inbounds i8, ptr %1, i64 8
  %10 = load ptr, ptr %9, align 8
  %11 = icmp eq ptr %8, %10
  %12 = zext i1 %11 to i32
  br label %13

13:                                               ; preds = %6, %2
  %14 = phi i32 [ 0, %2 ], [ %12, %6 ]
  ret i32 %14
}

; Function Attrs: nounwind uwtable
define hidden void @php_run_ticks(i32 noundef %0) local_unnamed_addr #0 {
  %2 = alloca i32, align 4
  store i32 %0, ptr %2, align 4
  call void @zend_llist_apply_with_argument(ptr noundef nonnull getelementptr inbounds (%struct._php_core_globals, ptr @core_globals, i64 0, i32 38), ptr noundef nonnull @php_tick_iterator, ptr noundef nonnull %2) #3
  ret void
}

declare void @zend_llist_apply_with_argument(ptr noundef, ptr noundef, ptr noundef) local_unnamed_addr #1

; Function Attrs: nounwind uwtable
define internal void @php_tick_iterator(ptr nocapture noundef readonly %0, ptr nocapture noundef readonly %1) #0 {
  %3 = load ptr, ptr %0, align 8
  %4 = load i32, ptr %1, align 4
  %5 = getelementptr inbounds i8, ptr %0, i64 8
  %6 = load ptr, ptr %5, align 8
  tail call void %3(i32 noundef %4, ptr noundef %6) #3
  ret void
}


!llvm.module.flags = !{!0, !1, !2, !3}

!0 = !{i32 1, !"wchar_size", i32 4}
!1 = !{i32 8, !"PIC Level", i32 2}
!2 = !{i32 7, !"uwtable", i32 2}
!3 = !{i32 7, !"frame-pointer", i32 2}
